target datalayout = "e-m:e-p270:32:32-p271:32:32-p272:64:64-i64:64-i128:128-f80:128-n8:16:32:64-S128"
target triple = "x86_64-unknown-linux-gnu"

%"class.grpc_core::TraceFlag" = type <{ ptr, ptr, %"struct.std::atomic.4", [7 x i8] }>
%"struct.std::atomic.4" = type { %"struct.std::__atomic_base.5" }
%"struct.std::__atomic_base.5" = type { i8 }
%struct.grpc_slice_buffer = type { ptr, ptr, i64, i64, i64, [7 x %struct.grpc_slice] }
%struct.grpc_slice = type { ptr, %"union.grpc_slice::grpc_slice_data" }
%"union.grpc_slice::grpc_slice_data" = type { %"struct.grpc_slice::grpc_slice_data::grpc_slice_refcounted", [8 x i8] }
%"struct.grpc_slice::grpc_slice_data::grpc_slice_refcounted" = type { i64, ptr }
%"struct.std::atomic" = type { %"struct.std::__atomic_base" }
%"struct.std::__atomic_base" = type { i64 }
%"class.std::__cxx11::basic_string" = type { %"struct.std::__cxx11::basic_string<char>::_Alloc_hider", i64, %union.anon.3 }
%"struct.std::__cxx11::basic_string<char>::_Alloc_hider" = type { ptr }
%union.anon.3 = type { i64, [8 x i8] }
%"class.grpc_core::MemoryOwner" = type { %"class.grpc_event_engine::experimental::MemoryAllocator" }
%"class.grpc_event_engine::experimental::MemoryAllocator" = type { %"class.std::shared_ptr" }
%"class.std::shared_ptr" = type { %"class.std::__shared_ptr" }
%"class.std::__shared_ptr" = type { ptr, %"class.std::__shared_count" }
%"class.std::__shared_count" = type { ptr }
%"class.grpc_event_engine::experimental::MemoryAllocator::Reservation" = type { %"class.std::shared_ptr", i64 }
%"struct.(anonymous namespace)::grpc_tcp" = type <{ %struct.grpc_endpoint, ptr, i32, i32, double, double, %"class.grpc_core::RefCount", i64, i32, i32, %struct.grpc_slice_buffer, %"class.absl::lts_20230802::Mutex", ptr, ptr, i64, ptr, ptr, ptr, ptr, %struct.grpc_closure, %struct.grpc_closure, %struct.grpc_closure, %"class.std::__cxx11::basic_string", %"class.std::__cxx11::basic_string", %"class.grpc_core::MemoryOwner", %"class.grpc_event_engine::experimental::MemoryAllocator::Reservation", %"class.grpc_core::TracedBufferList", ptr, i32, i32, i64, %"class.grpc_core::TcpZerocopySendCtx", ptr, i32, i8, i8, i8, i8, i8, [7 x i8] }>
%struct.grpc_endpoint = type { ptr }
%"class.grpc_core::RefCount" = type { %"struct.std::atomic" }
%"class.absl::lts_20230802::Mutex" = type { %"struct.std::atomic" }
%struct.grpc_closure = type { %union.anon, ptr, ptr, %union.anon.2 }
%union.anon = type { ptr }
%union.anon.2 = type { i64 }
%"class.grpc_core::TracedBufferList" = type { %"class.absl::lts_20230802::Mutex", ptr, ptr }
%"class.grpc_core::TcpZerocopySendCtx" = type <{ ptr, ptr, i32, i32, %"class.absl::lts_20230802::Mutex", i32, %"struct.std::atomic.4", i8, [2 x i8], i64, %"class.std::unordered_map", i8, i8, i8, [5 x i8] }>
%"class.std::unordered_map" = type { %"class.std::_Hashtable" }
%"class.std::_Hashtable" = type { ptr, i64, %"struct.std::__detail::_Hash_node_base", i64, %"struct.std::__detail::_Prime_rehash_policy", ptr }
%"struct.std::__detail::_Hash_node_base" = type { ptr }
%"struct.std::__detail::_Prime_rehash_policy" = type { float, i64 }
%struct.msghdr = type { ptr, i32, ptr, i64, ptr, i64, i32 }
%struct.cmsghdr = type { i64, i32, i32, [0 x i8] }
%union.anon.56 = type { %struct.cmsghdr, [8 x i8] }

@.str = private unnamed_addr constant [119 x i8] c"generated/home/dtcxzyw/WorkSpace/Projects/compilers/llvm-opt-benchmark/bench/grpc/grpc/src/core/lib/iomgr/tcp_posix.cc\00", align 1
@grpc_tcp_trace = external global %"class.grpc_core::TraceFlag", align 8
@.str.29 = private unnamed_addr constant [50 x i8] c"Failed to set timestamping options on the socket.\00", align 1

; Function Attrs: mustprogress nounwind uwtable
define linkonce_odr noundef i32 @_ZStanSt12memory_orderSt23__memory_order_modifier(i32 noundef %__m, i32 noundef %__mod) #6 comdat {
entry:
  %__m.addr = alloca i32, align 4
  %__mod.addr = alloca i32, align 4
  store i32 %__m, ptr %__m.addr, align 4
  store i32 %__mod, ptr %__mod.addr, align 4
  %0 = load i32, ptr %__m.addr, align 4
  %1 = load i32, ptr %__mod.addr, align 4
  %and = and i32 %0, %1
  ret i32 %and
}

; Function Attrs: mustprogress nounwind uwtable
define linkonce_odr noundef zeroext i1 @_ZNKSt6atomicIbE4loadESt12memory_order(ptr noundef nonnull align 1 dereferenceable(1) %this, i32 noundef %__m) #6 comdat align 2 {
entry:
  %this.addr.i = alloca ptr, align 8
  %__m.addr.i = alloca i32, align 4
  %__b.i = alloca i32, align 4
  %atomic-temp.i = alloca i8, align 1
  %this.addr = alloca ptr, align 8
  %__m.addr = alloca i32, align 4
  store ptr %this, ptr %this.addr, align 8
  store i32 %__m, ptr %__m.addr, align 4
  %this1 = load ptr, ptr %this.addr, align 8
  %_M_base = getelementptr inbounds %"struct.std::atomic.4", ptr %this1, i32 0, i32 0
  %0 = load i32, ptr %__m.addr, align 4
  store ptr %_M_base, ptr %this.addr.i, align 8
  store i32 %0, ptr %__m.addr.i, align 4
  %this1.i = load ptr, ptr %this.addr.i, align 8
  %1 = load i32, ptr %__m.addr.i, align 4
  %call.i = call noundef i32 @_ZStanSt12memory_orderSt23__memory_order_modifier(i32 noundef %1, i32 noundef 65535)
  store i32 %call.i, ptr %__b.i, align 4
  %2 = load i32, ptr %__m.addr.i, align 4
  switch i32 %2, label %monotonic.i [
    i32 1, label %acquire.i
    i32 2, label %acquire.i
    i32 5, label %seqcst.i
  ]

monotonic.i:                                      ; preds = %entry
  %3 = load atomic i8, ptr %this1.i monotonic, align 1
  store i8 %3, ptr %atomic-temp.i, align 1
  br label %_ZNKSt13__atomic_baseIbE4loadESt12memory_order.exit

acquire.i:                                        ; preds = %entry, %entry
  %4 = load atomic i8, ptr %this1.i acquire, align 1
  store i8 %4, ptr %atomic-temp.i, align 1
  br label %_ZNKSt13__atomic_baseIbE4loadESt12memory_order.exit

seqcst.i:                                         ; preds = %entry
  %5 = load atomic i8, ptr %this1.i seq_cst, align 1
  store i8 %5, ptr %atomic-temp.i, align 1
  br label %_ZNKSt13__atomic_baseIbE4loadESt12memory_order.exit

_ZNKSt13__atomic_baseIbE4loadESt12memory_order.exit: ; preds = %seqcst.i, %acquire.i, %monotonic.i
  %6 = load i8, ptr %atomic-temp.i, align 1
  %tobool.i = trunc i8 %6 to i1
  ret i1 %tobool.i
}

; Function Attrs: mustprogress nounwind uwtable
define linkonce_odr noundef zeroext i1 @_ZN9grpc_core9TraceFlag7enabledEv(ptr noundef nonnull align 8 dereferenceable(17) %this) #6 comdat align 2 {
entry:
  %this.addr = alloca ptr, align 8
  store ptr %this, ptr %this.addr, align 8
  %this1 = load ptr, ptr %this.addr, align 8
  %value_ = getelementptr inbounds %"class.grpc_core::TraceFlag", ptr %this1, i32 0, i32 2
  %call = call noundef zeroext i1 @_ZNKSt6atomicIbE4loadESt12memory_order(ptr noundef nonnull align 1 dereferenceable(1) %value_, i32 noundef 0) #3
  ret i1 %call
}

; Function Attrs: mustprogress uwtable
define internal noundef zeroext i1 @_ZL25tcp_write_with_timestampsPN12_GLOBAL__N_18grpc_tcpEP6msghdrmPlPii(ptr noundef %tcp, ptr noundef %msg, i64 noundef %sending_length, ptr noundef %sent_length, ptr noundef %saved_errno, i32 noundef %additional_flags) #4 {
entry:
  %retval = alloca i1, align 1
  %tcp.addr = alloca ptr, align 8
  %msg.addr = alloca ptr, align 8
  %sending_length.addr = alloca i64, align 8
  %sent_length.addr = alloca ptr, align 8
  %saved_errno.addr = alloca ptr, align 8
  %additional_flags.addr = alloca i32, align 4
  %opt = alloca i32, align 4
  %u = alloca %union.anon.56, align 8
  %cmsg = alloca ptr, align 8
  %length = alloca i64, align 8
  store ptr %tcp, ptr %tcp.addr, align 8
  store ptr %msg, ptr %msg.addr, align 8
  store i64 %sending_length, ptr %sending_length.addr, align 8
  store ptr %sent_length, ptr %sent_length.addr, align 8
  store ptr %saved_errno, ptr %saved_errno.addr, align 8
  store i32 %additional_flags, ptr %additional_flags.addr, align 4
  %0 = load ptr, ptr %tcp.addr, align 8
  %socket_ts_enabled = getelementptr inbounds %"struct.(anonymous namespace)::grpc_tcp", ptr %0, i32 0, i32 37
  %1 = load i8, ptr %socket_ts_enabled, align 1
  %tobool = trunc i8 %1 to i1
  br i1 %tobool, label %if.end6, label %if.then

if.then:                                          ; preds = %entry
  store i32 6288, ptr %opt, align 4
  %2 = load ptr, ptr %tcp.addr, align 8
  %fd = getelementptr inbounds %"struct.(anonymous namespace)::grpc_tcp", ptr %2, i32 0, i32 2
  %3 = load i32, ptr %fd, align 8
  %call = call i32 @setsockopt(i32 noundef %3, i32 noundef 1, i32 noundef 37, ptr noundef %opt, i32 noundef 4) #3
  %cmp = icmp ne i32 %call, 0
  br i1 %cmp, label %if.then1, label %if.end4

if.then1:                                         ; preds = %if.then
  %call2 = call noundef zeroext i1 @_ZN9grpc_core9TraceFlag7enabledEv(ptr noundef nonnull align 8 dereferenceable(17) @grpc_tcp_trace)
  br i1 %call2, label %if.then3, label %if.end

if.then3:                                         ; preds = %if.then1
  call void (ptr, i32, i32, ptr, ...) @gpr_log(ptr noundef @.str, i32 noundef 1254, i32 noundef 2, ptr noundef @.str.29)
  br label %if.end

if.end:                                           ; preds = %if.then3, %if.then1
  store i1 false, ptr %retval, align 1
  br label %return

if.end4:                                          ; preds = %if.then
  %4 = load ptr, ptr %tcp.addr, align 8
  %bytes_counter = getelementptr inbounds %"struct.(anonymous namespace)::grpc_tcp", ptr %4, i32 0, i32 28
  store i32 -1, ptr %bytes_counter, align 8
  %5 = load ptr, ptr %tcp.addr, align 8
  %socket_ts_enabled5 = getelementptr inbounds %"struct.(anonymous namespace)::grpc_tcp", ptr %5, i32 0, i32 37
  store i8 1, ptr %socket_ts_enabled5, align 1
  br label %if.end6

if.end6:                                          ; preds = %if.end4, %entry
  %arraydecay = getelementptr inbounds [24 x i8], ptr %u, i64 0, i64 0
  store ptr %arraydecay, ptr %cmsg, align 8
  %6 = load ptr, ptr %cmsg, align 8
  %cmsg_level = getelementptr inbounds %struct.cmsghdr, ptr %6, i32 0, i32 1
  store i32 1, ptr %cmsg_level, align 8
  %7 = load ptr, ptr %cmsg, align 8
  %cmsg_type = getelementptr inbounds %struct.cmsghdr, ptr %7, i32 0, i32 2
  store i32 37, ptr %cmsg_type, align 4
  %8 = load ptr, ptr %cmsg, align 8
  %cmsg_len = getelementptr inbounds %struct.cmsghdr, ptr %8, i32 0, i32 0
  store i64 20, ptr %cmsg_len, align 8
  %9 = load ptr, ptr %cmsg, align 8
  %__cmsg_data = getelementptr inbounds %struct.cmsghdr, ptr %9, i32 0, i32 3
  %arraydecay7 = getelementptr inbounds [0 x i8], ptr %__cmsg_data, i64 0, i64 0
  store i32 770, ptr %arraydecay7, align 8
  %arraydecay8 = getelementptr inbounds [24 x i8], ptr %u, i64 0, i64 0
  %10 = load ptr, ptr %msg.addr, align 8
  %msg_control = getelementptr inbounds %struct.msghdr, ptr %10, i32 0, i32 4
  store ptr %arraydecay8, ptr %msg_control, align 8
  %11 = load ptr, ptr %msg.addr, align 8
  %msg_controllen = getelementptr inbounds %struct.msghdr, ptr %11, i32 0, i32 5
  store i64 24, ptr %msg_controllen, align 8
  %12 = load ptr, ptr %tcp.addr, align 8
  %fd9 = getelementptr inbounds %"struct.(anonymous namespace)::grpc_tcp", ptr %12, i32 0, i32 2
  %13 = load i32, ptr %fd9, align 8
  %14 = load ptr, ptr %msg.addr, align 8
  %15 = load ptr, ptr %saved_errno.addr, align 8
  %16 = load i32, ptr %additional_flags.addr, align 4
  %call10 = call noundef i64 @_Z8tcp_sendiPK6msghdrPii(i32 noundef %13, ptr noundef %14, ptr noundef %15, i32 noundef %16)
  store i64 %call10, ptr %length, align 8
  %17 = load i64, ptr %length, align 8
  %18 = load ptr, ptr %sent_length.addr, align 8
  store i64 %17, ptr %18, align 8
  %19 = load i64, ptr %sending_length.addr, align 8
  %20 = load i64, ptr %length, align 8
  %cmp11 = icmp eq i64 %19, %20
  br i1 %cmp11, label %if.then12, label %if.end17

if.then12:                                        ; preds = %if.end6
  %21 = load ptr, ptr %tcp.addr, align 8
  %tb_list = getelementptr inbounds %"struct.(anonymous namespace)::grpc_tcp", ptr %21, i32 0, i32 26
  %22 = load ptr, ptr %tcp.addr, align 8
  %bytes_counter13 = getelementptr inbounds %"struct.(anonymous namespace)::grpc_tcp", ptr %22, i32 0, i32 28
  %23 = load i32, ptr %bytes_counter13, align 8
  %conv = sext i32 %23 to i64
  %24 = load i64, ptr %length, align 8
  %add = add nsw i64 %conv, %24
  %conv14 = trunc i64 %add to i32
  %25 = load ptr, ptr %tcp.addr, align 8
  %fd15 = getelementptr inbounds %"struct.(anonymous namespace)::grpc_tcp", ptr %25, i32 0, i32 2
  %26 = load i32, ptr %fd15, align 8
  %27 = load ptr, ptr %tcp.addr, align 8
  %outgoing_buffer_arg = getelementptr inbounds %"struct.(anonymous namespace)::grpc_tcp", ptr %27, i32 0, i32 27
  %28 = load ptr, ptr %outgoing_buffer_arg, align 8
  call void @_ZN9grpc_core16TracedBufferList11AddNewEntryEiiPv(ptr noundef nonnull align 8 dereferenceable(24) %tb_list, i32 noundef %conv14, i32 noundef %26, ptr noundef %28)
  %29 = load ptr, ptr %tcp.addr, align 8
  %outgoing_buffer_arg16 = getelementptr inbounds %"struct.(anonymous namespace)::grpc_tcp", ptr %29, i32 0, i32 27
  store ptr null, ptr %outgoing_buffer_arg16, align 8
  br label %if.end17

if.end17:                                         ; preds = %if.then12, %if.end6
  store i1 true, ptr %retval, align 1
  br label %return

return:                                           ; preds = %if.end17, %if.end
  %30 = load i1, ptr %retval, align 1
  ret i1 %30
}