; Function Attrs: mustprogress uwtable
define internal fastcc noundef zeroext i1 @_ZL25tcp_write_with_timestampsPN12_GLOBAL__N_18grpc_tcpEP6msghdrmPlPii(ptr noundef %tcp, ptr noundef %msg, i64 noundef %sending_length, ptr nocapture noundef writeonly %sent_length, ptr nocapture noundef writeonly %saved_errno, i32 noundef %additional_flags) unnamed_addr #6 {
entry:
  %opt = alloca i32, align 4
  %u = alloca %union.anon.56, align 8
  %socket_ts_enabled = getelementptr inbounds i8, ptr %tcp, i64 767
  %0 = load i8, ptr %socket_ts_enabled, align 1
  %1 = and i8 %0, 1
  %tobool.not = icmp eq i8 %1, 0
  br i1 %tobool.not, label %if.then, label %if.end6

if.then:                                          ; preds = %entry
  store i32 6288, ptr %opt, align 4
  %fd = getelementptr inbounds i8, ptr %tcp, i64 16
  %2 = load i32, ptr %fd, align 8
  %call = call i32 @setsockopt(i32 noundef %2, i32 noundef 1, i32 noundef 37, ptr noundef nonnull %opt, i32 noundef 4) #24
  %cmp.not = icmp eq i32 %call, 0
  br i1 %cmp.not, label %if.end4, label %if.then1

if.then1:                                         ; preds = %if.then
  %3 = load atomic i8, ptr getelementptr inbounds (%"class.grpc_core::TraceFlag", ptr @grpc_tcp_trace, i64 0, i32 2, i32 0, i32 0) monotonic, align 8
  %4 = and i8 %3, 1
  %tobool.i.i.i.not = icmp eq i8 %4, 0
  br i1 %tobool.i.i.i.not, label %return, label %if.then3

if.then3:                                         ; preds = %if.then1
  call void (ptr, i32, i32, ptr, ...) @gpr_log(ptr noundef nonnull @.str, i32 noundef 1254, i32 noundef 2, ptr noundef nonnull @.str.29)
  br label %return

if.end4:                                          ; preds = %if.then
  %bytes_counter = getelementptr inbounds i8, ptr %tcp, i64 624
  store i32 -1, ptr %bytes_counter, align 8
  store i8 1, ptr %socket_ts_enabled, align 1
  br label %if.end6

if.end6:                                          ; preds = %if.end4, %entry
  %cmsg_level = getelementptr inbounds i8, ptr %u, i64 8
  store i32 1, ptr %cmsg_level, align 8
  %cmsg_type = getelementptr inbounds i8, ptr %u, i64 12
  store i32 37, ptr %cmsg_type, align 4
  store i64 20, ptr %u, align 8
  %__cmsg_data = getelementptr inbounds i8, ptr %u, i64 16
  store i32 770, ptr %__cmsg_data, align 8
  %msg_control = getelementptr inbounds i8, ptr %msg, i64 32
  store ptr %u, ptr %msg_control, align 8
  %msg_controllen = getelementptr inbounds i8, ptr %msg, i64 40
  store i64 24, ptr %msg_controllen, align 8
  %fd9 = getelementptr inbounds i8, ptr %tcp, i64 16
  %5 = load i32, ptr %fd9, align 8
  %call10 = call noundef i64 @_Z8tcp_sendiPK6msghdrPii(i32 noundef %5, ptr noundef %msg, ptr noundef %saved_errno, i32 noundef %additional_flags)
  store i64 %call10, ptr %sent_length, align 8
  %cmp11 = icmp eq i64 %call10, %sending_length
  br i1 %cmp11, label %if.then12, label %return

if.then12:                                        ; preds = %if.end6
  %tb_list = getelementptr inbounds i8, ptr %tcp, i64 592
  %bytes_counter13 = getelementptr inbounds i8, ptr %tcp, i64 624
  %6 = load i32, ptr %bytes_counter13, align 8
  %7 = trunc i64 %sending_length to i32
  %conv14 = add i32 %6, %7
  %8 = load i32, ptr %fd9, align 8
  %outgoing_buffer_arg = getelementptr inbounds i8, ptr %tcp, i64 616
  %9 = load ptr, ptr %outgoing_buffer_arg, align 8
  call void @_ZN9grpc_core16TracedBufferList11AddNewEntryEiiPv(ptr noundef nonnull align 8 dereferenceable(24) %tb_list, i32 noundef %conv14, i32 noundef %8, ptr noundef %9)
  store ptr null, ptr %outgoing_buffer_arg, align 8
  br label %return

return:                                           ; preds = %if.end6, %if.then12, %if.then1, %if.then3
  %retval.0 = phi i1 [ false, %if.then3 ], [ false, %if.then1 ], [ true, %if.then12 ], [ true, %if.end6 ]
  ret i1 %retval.0
}